target datalayout = "e-m:e-p270:32:32-p271:32:32-p272:64:64-i64:64-i128:128-f80:128-n8:16:32:64-S128"
target triple = "x86_64-pc-linux-gnu"

@.str.1 = private unnamed_addr constant [32 x i8] c"../openssl/crypto/asn1/p5_pbe.c\00", align 1
@__func__.PKCS5_pbe_set_ex = private unnamed_addr constant [17 x i8] c"PKCS5_pbe_set_ex\00", align 1

; Function Attrs: nounwind uwtable
define ptr @PKCS5_pbe_set_ex(i32 noundef %0, i32 noundef %1, ptr noundef %2, i32 noundef %3, ptr noundef %4) #0 {
  %6 = alloca ptr, align 8
  %7 = alloca i32, align 4
  %8 = alloca i32, align 4
  %9 = alloca ptr, align 8
  %10 = alloca i32, align 4
  %11 = alloca ptr, align 8
  %12 = alloca ptr, align 8
  %13 = alloca i32, align 4
  store i32 %0, ptr %7, align 4, !tbaa !16
  store i32 %1, ptr %8, align 4, !tbaa !16
  store ptr %2, ptr %9, align 8, !tbaa !18
  store i32 %3, ptr %10, align 4, !tbaa !16
  store ptr %4, ptr %11, align 8, !tbaa !20
  call void @llvm.lifetime.start.p0(i64 8, ptr %12) #4
  %14 = call ptr @X509_ALGOR_new()
  store ptr %14, ptr %12, align 8, !tbaa !14
  %15 = load ptr, ptr %12, align 8, !tbaa !14
  %16 = icmp eq ptr %15, null
  br i1 %16, label %17, label %18

17:                                               ; preds = %5
  call void @ERR_new()
  call void @ERR_set_debug(ptr noundef @.str.1, i32 noundef 97, ptr noundef @__func__.PKCS5_pbe_set_ex)
  call void (i32, i32, ptr, ...) @ERR_set_error(i32 noundef 13, i32 noundef 524299, ptr noundef null)
  store ptr null, ptr %6, align 8
  store i32 1, ptr %13, align 4
  br label %31

18:                                               ; preds = %5
  %19 = load ptr, ptr %12, align 8, !tbaa !14
  %20 = load i32, ptr %7, align 4, !tbaa !16
  %21 = load i32, ptr %8, align 4, !tbaa !16
  %22 = load ptr, ptr %9, align 8, !tbaa !18
  %23 = load i32, ptr %10, align 4, !tbaa !16
  %24 = load ptr, ptr %11, align 8, !tbaa !20
  %25 = call i32 @PKCS5_pbe_set0_algor_ex(ptr noundef %19, i32 noundef %20, i32 noundef %21, ptr noundef %22, i32 noundef %23, ptr noundef %24)
  %26 = icmp ne i32 %25, 0
  br i1 %26, label %27, label %29

27:                                               ; preds = %18
  %28 = load ptr, ptr %12, align 8, !tbaa !14
  store ptr %28, ptr %6, align 8
  store i32 1, ptr %13, align 4
  br label %31

29:                                               ; preds = %18
  %30 = load ptr, ptr %12, align 8, !tbaa !14
  call void @X509_ALGOR_free(ptr noundef %30)
  store ptr null, ptr %6, align 8
  store i32 1, ptr %13, align 4
  br label %31

31:                                               ; preds = %29, %27, %17
  call void @llvm.lifetime.end.p0(i64 8, ptr %12) #4
  %32 = load ptr, ptr %6, align 8
  ret ptr %32
}

; Function Attrs: nounwind uwtable
define ptr @PKCS5_pbe_set(i32 noundef %0, i32 noundef %1, ptr noundef %2, i32 noundef %3) #0 {
  %5 = alloca i32, align 4
  %6 = alloca i32, align 4
  %7 = alloca ptr, align 8
  %8 = alloca i32, align 4
  store i32 %0, ptr %5, align 4, !tbaa !16
  store i32 %1, ptr %6, align 4, !tbaa !16
  store ptr %2, ptr %7, align 8, !tbaa !18
  store i32 %3, ptr %8, align 4, !tbaa !16
  %9 = load i32, ptr %5, align 4, !tbaa !16
  %10 = load i32, ptr %6, align 4, !tbaa !16
  %11 = load ptr, ptr %7, align 8, !tbaa !18
  %12 = load i32, ptr %8, align 4, !tbaa !16
  %13 = call ptr @PKCS5_pbe_set_ex(i32 noundef %9, i32 noundef %10, ptr noundef %11, i32 noundef %12, ptr noundef null)
  ret ptr %13
}