; Function Attrs: nounwind uwtable
define ptr @PKCS5_pbe_set(i32 noundef %0, i32 noundef %1, ptr noundef captures(address_is_null) %2, i32 noundef %3) local_unnamed_addr #1 {
  %5 = tail call ptr @X509_ALGOR_new() #5
  %6 = icmp eq ptr %5, null
  br i1 %6, label %7, label %8

7:                                                ; preds = %4
  tail call void @ERR_new() #5
  tail call void @ERR_set_debug(ptr noundef nonnull @.str.1, i32 noundef 97, ptr noundef nonnull @__func__.PKCS5_pbe_set_ex) #5
  tail call void (i32, i32, ptr, ...) @ERR_set_error(i32 noundef 13, i32 noundef 524299, ptr noundef null) #5
  br label %PKCS5_pbe_set_ex.exit

8:                                                ; preds = %4
  %9 = tail call i32 @PKCS5_pbe_set0_algor_ex(ptr noundef nonnull %5, i32 noundef %0, i32 noundef %1, ptr noundef %2, i32 noundef %3, ptr noundef null)
  %.not.i = icmp eq i32 %9, 0
  br i1 %.not.i, label %10, label %PKCS5_pbe_set_ex.exit

10:                                               ; preds = %8
  tail call void @X509_ALGOR_free(ptr noundef nonnull %5) #5
  br label %PKCS5_pbe_set_ex.exit

PKCS5_pbe_set_ex.exit:                            ; preds = %7, %8, %10
  %.0.i = phi ptr [ null, %7 ], [ null, %10 ], [ %5, %8 ]
  ret ptr %.0.i
}